target datalayout = "e-m:e-p270:32:32-p271:32:32-p272:64:64-i64:64-i128:128-f80:128-n8:16:32:64-S128"
target triple = "x86_64-pc-linux-gnu"

%class.QToolBar = type { %class.QWidget }
%class.QWidget = type { %class.QObject, %class.QPaintDevice, ptr }
%class.QObject = type { ptr, %class.QScopedPointer }
%class.QScopedPointer = type { ptr }
%class.QPaintDevice = type { ptr, i16, ptr }
%class.MLRenderingParametersFrame = type <{ %class.QFrame, i32, [4 x i8] }>
%class.QFrame = type { %class.QWidget }
%class.MLRenderingSolidParametersFrame = type { %class.MLRenderingParametersFrame.base, ptr, ptr, ptr, ptr, ptr, ptr, ptr, ptr }
%class.MLRenderingParametersFrame.base = type <{ %class.QFrame, i32 }>
%class.MLRenderingOnOffToolbar = type { %class.QToolBar, i32, ptr, ptr, ptr }

; Function Attrs: mustprogress uwtable
define void @_ZN23MLRenderingOnOffToolbar19setAssociatedMeshIdEi(ptr noundef nonnull align 8 dereferenceable(80) %0, i32 noundef %1) #5 align 2 {
  %3 = alloca ptr, align 8
  %4 = alloca i32, align 4
  store ptr %0, ptr %3, align 8
  store i32 %1, ptr %4, align 4
  %5 = load ptr, ptr %3, align 8
  %6 = load i32, ptr %4, align 4
  %7 = getelementptr inbounds %class.MLRenderingOnOffToolbar, ptr %5, i32 0, i32 1
  store i32 %6, ptr %7, align 8
  %8 = getelementptr inbounds %class.MLRenderingOnOffToolbar, ptr %5, i32 0, i32 2
  %9 = load ptr, ptr %8, align 8
  %10 = icmp ne ptr %9, null
  br i1 %10, label %11, label %15

11:                                               ; preds = %2
  %12 = getelementptr inbounds %class.MLRenderingOnOffToolbar, ptr %5, i32 0, i32 2
  %13 = load ptr, ptr %12, align 8
  %14 = load i32, ptr %4, align 4
  call void @_ZN17MLRenderingAction9setMeshIdEi(ptr noundef nonnull align 8 dereferenceable(16) %13, i32 noundef %14)
  br label %15

15:                                               ; preds = %11, %2
  ret void
}

; Function Attrs: mustprogress uwtable
define void @_ZN31MLRenderingSolidParametersFrame19setAssociatedMeshIdEi(ptr noundef nonnull align 8 dereferenceable(120) %0, i32 noundef %1) unnamed_addr #5 align 2 {
  %3 = alloca ptr, align 8
  %4 = alloca i32, align 4
  store ptr %0, ptr %3, align 8
  store i32 %1, ptr %4, align 4
  %5 = load ptr, ptr %3, align 8
  %6 = load i32, ptr %4, align 4
  %7 = getelementptr inbounds %class.MLRenderingParametersFrame, ptr %5, i32 0, i32 1
  store i32 %6, ptr %7, align 8
  %8 = getelementptr inbounds %class.MLRenderingSolidParametersFrame, ptr %5, i32 0, i32 2
  %9 = load ptr, ptr %8, align 8
  %10 = load i32, ptr %4, align 4
  call void @_ZN18MLRenderingToolbar19setAssociatedMeshIdEi(ptr noundef nonnull align 8 dereferenceable(96) %9, i32 noundef %10)
  %11 = getelementptr inbounds %class.MLRenderingSolidParametersFrame, ptr %5, i32 0, i32 4
  %12 = load ptr, ptr %11, align 8
  %13 = load i32, ptr %4, align 4
  call void @_ZN18MLRenderingToolbar19setAssociatedMeshIdEi(ptr noundef nonnull align 8 dereferenceable(96) %12, i32 noundef %13)
  %14 = getelementptr inbounds %class.MLRenderingSolidParametersFrame, ptr %5, i32 0, i32 6
  %15 = load ptr, ptr %14, align 8
  %16 = load i32, ptr %4, align 4
  call void @_ZN18MLRenderingToolbar19setAssociatedMeshIdEi(ptr noundef nonnull align 8 dereferenceable(96) %15, i32 noundef %16)
  %17 = getelementptr inbounds %class.MLRenderingSolidParametersFrame, ptr %5, i32 0, i32 8
  %18 = load ptr, ptr %17, align 8
  %19 = load i32, ptr %4, align 4
  call void @_ZN23MLRenderingOnOffToolbar19setAssociatedMeshIdEi(ptr noundef nonnull align 8 dereferenceable(80) %18, i32 noundef %19)
  ret void
}