; Function Attrs: mustprogress uwtable
define void @_ZN31MLRenderingSolidParametersFrame19setAssociatedMeshIdEi(ptr nocapture noundef nonnull align 8 dereferenceable(120) %0, i32 noundef %1) unnamed_addr #3 align 2 {
  %3 = getelementptr inbounds i8, ptr %0, i64 48
  store i32 %1, ptr %3, align 8
  %4 = getelementptr inbounds i8, ptr %0, i64 64
  %5 = load ptr, ptr %4, align 8
  tail call void @_ZN18MLRenderingToolbar19setAssociatedMeshIdEi(ptr noundef nonnull align 8 dereferenceable(96) %5, i32 noundef %1)
  %6 = getelementptr inbounds i8, ptr %0, i64 80
  %7 = load ptr, ptr %6, align 8
  tail call void @_ZN18MLRenderingToolbar19setAssociatedMeshIdEi(ptr noundef nonnull align 8 dereferenceable(96) %7, i32 noundef %1)
  %8 = getelementptr inbounds i8, ptr %0, i64 96
  %9 = load ptr, ptr %8, align 8
  tail call void @_ZN18MLRenderingToolbar19setAssociatedMeshIdEi(ptr noundef nonnull align 8 dereferenceable(96) %9, i32 noundef %1)
  %10 = getelementptr inbounds i8, ptr %0, i64 112
  %11 = load ptr, ptr %10, align 8
  %12 = getelementptr inbounds i8, ptr %11, i64 48
  store i32 %1, ptr %12, align 8
  %13 = getelementptr inbounds i8, ptr %11, i64 56
  %14 = load ptr, ptr %13, align 8
  %.not.i = icmp eq ptr %14, null
  br i1 %.not.i, label %_ZN23MLRenderingOnOffToolbar19setAssociatedMeshIdEi.exit, label %15

15:                                               ; preds = %2
  tail call void @_ZN17MLRenderingAction9setMeshIdEi(ptr noundef nonnull align 8 dereferenceable(16) %14, i32 noundef %1)
  br label %_ZN23MLRenderingOnOffToolbar19setAssociatedMeshIdEi.exit

_ZN23MLRenderingOnOffToolbar19setAssociatedMeshIdEi.exit: ; preds = %2, %15
  ret void
}